target datalayout = "e-m:e-p270:32:32-p271:32:32-p272:64:64-i64:64-i128:128-f80:128-n8:16:32:64-S128"
target triple = "x86_64-pc-linux-gnu"

%struct.ps_serializer_struct = type { ptr, ptr, ptr }

@ps_modules = internal global <{ ptr, ptr, [31 x ptr] }> <{ ptr @ps_mod_files, ptr @ps_mod_user, [31 x ptr] zeroinitializer }>, align 16
@php_rfc1867_callback = external global ptr, align 8
@php_session_rfc1867_orig_callback = internal global ptr null, align 8

; Function Attrs: nounwind uwtable
define internal i32 @zm_shutdown_session(i32 noundef %0, i32 noundef %1) #0 {
  %3 = alloca i32, align 4
  %4 = alloca i32, align 4
  store i32 %0, ptr %3, align 4
  store i32 %1, ptr %4, align 4
  %5 = load i32, ptr %4, align 4
  %6 = load i32, ptr %3, align 4
  call void @zend_unregister_ini_entries_ex(i32 noundef %5, i32 noundef %6)
  store ptr null, ptr @php_session_rfc1867_orig_callback, align 8
  %7 = load ptr, ptr @php_rfc1867_callback, align 8
  %8 = icmp eq ptr %7, @php_session_rfc1867_callback
  br i1 %8, label %9, label %10

9:                                                ; preds = %2
  store ptr null, ptr @php_rfc1867_callback, align 8
  br label %10

10:                                               ; preds = %9, %2
  store ptr null, ptr getelementptr inbounds ([33 x %struct.ps_serializer_struct], ptr @ps_serializers, i64 0, i64 3), align 8
  call void @llvm.memset.p0.i64(ptr align 16 getelementptr inbounds ([33 x ptr], ptr @ps_modules, i64 0, i64 2), i8 0, i64 240, i1 false)
  ret i32 0
}