; Function Attrs: nounwind uwtable
define internal noundef i32 @zm_shutdown_session(i32 noundef %0, i32 noundef %1) #0 {
  tail call void @zend_unregister_ini_entries_ex(i32 noundef %1, i32 noundef %0) #23
  store ptr null, ptr @php_session_rfc1867_orig_callback, align 8
  %3 = load ptr, ptr @php_rfc1867_callback, align 8
  %4 = icmp eq ptr %3, @php_session_rfc1867_callback
  br i1 %4, label %5, label %6

5:                                                ; preds = %2
  store ptr null, ptr @php_rfc1867_callback, align 8
  br label %6

6:                                                ; preds = %5, %2
  store ptr null, ptr getelementptr inbounds (<{ %struct.ps_serializer_struct, %struct.ps_serializer_struct, %struct.ps_serializer_struct, [30 x %struct.ps_serializer_struct] }>, ptr @ps_serializers, i64 0, i32 3, i64 0), align 8
  tail call void @llvm.memset.p0.i64(ptr noundef nonnull align 16 dereferenceable(240) getelementptr inbounds (<{ ptr, ptr, [31 x ptr] }>, ptr @ps_modules, i64 0, i32 2, i64 0), i8 0, i64 240, i1 false)
  ret i32 0
}